target datalayout = "e-m:e-p270:32:32-p271:32:32-p272:64:64-i64:64-i128:128-f80:128-n8:16:32:64-S128"
target triple = "x86_64-pc-linux-gnu"

%struct._value_string_ext = type { ptr, i32, i32, ptr, ptr }
%struct._packet_info = type { ptr, ptr, i32, i32, %struct.nstime_t, %struct.nstime_t, %struct.nstime_t, i8, ptr, ptr, ptr, ptr, %struct._address, %struct._address, %struct._address, %struct._address, %struct._address, %struct._address, i32, ptr, i8, [3 x i8], %struct.anon, i32, i32, i32, i32, ptr, i8, ptr, ptr, i16, i16, i32, i32, i16, i32, i32, ptr, ptr, ptr, i8, i8, i16, i16, i16, i32, i16, i16, ptr, ptr, ptr, ptr, ptr, i32, i32 }
%struct.nstime_t = type { i64, i32 }
%struct._address = type { i32, i32, ptr, ptr }
%struct.anon = type { i8, [3 x i8] }

@ppp_vals_ext = hidden global %struct._value_string_ext { ptr @_try_val_to_str_ext_init, i32 0, i32 133, ptr @ppp_vals, ptr @.str.6 }, align 8
@.str.692 = private unnamed_addr constant [8 x i8] c"Unknown\00", align 1
@hf_iphc_crtp_cid8 = internal global i32 0, align 4
@hf_iphc_crtp_seq = internal global i32 0, align 4
@hf_iphc_crtp_data = internal global i32 0, align 4
@ett_iphc_crtp = internal global i32 0, align 4
@.str.855 = private unnamed_addr constant [5 x i8] c"CRTP\00", align 1
@proto_iphc_crtp = internal global i32 0, align 4
@.str.1322 = private unnamed_addr constant [3 x i8] c"%s\00", align 1
@.str.1598 = private unnamed_addr constant [17 x i8] c"Compressed UDP 8\00", align 1

; Function Attrs: null_pointer_is_valid sspstrong uwtable
define internal i32 @dissect_iphc_crtp_cudp8(ptr noundef %0, ptr noundef %1, ptr noundef %2, ptr noundef %3) #1 {
  %5 = alloca ptr, align 8
  %6 = alloca ptr, align 8
  %7 = alloca ptr, align 8
  %8 = alloca ptr, align 8
  %9 = alloca ptr, align 8
  %10 = alloca ptr, align 8
  %11 = alloca i32, align 4
  %12 = alloca i32, align 4
  %13 = alloca i32, align 4
  store ptr %0, ptr %5, align 8
  store ptr %1, ptr %6, align 8
  store ptr %2, ptr %7, align 8
  store ptr %3, ptr %8, align 8
  call void @llvm.lifetime.start.p0(i64 8, ptr %9) #6
  call void @llvm.lifetime.start.p0(i64 8, ptr %10) #6
  call void @llvm.lifetime.start.p0(i64 4, ptr %11) #6
  call void @llvm.lifetime.start.p0(i64 4, ptr %12) #6
  call void @llvm.lifetime.start.p0(i64 4, ptr %13) #6
  store i32 0, ptr %13, align 4
  %14 = load ptr, ptr %6, align 8
  %15 = getelementptr inbounds nuw %struct._packet_info, ptr %14, i32 0, i32 1
  %16 = load ptr, ptr %15, align 8
  call void @col_set_str(ptr noundef %16, i32 noundef 35, ptr noundef @.str.855)
  %17 = load ptr, ptr %6, align 8
  %18 = getelementptr inbounds nuw %struct._packet_info, ptr %17, i32 0, i32 1
  %19 = load ptr, ptr %18, align 8
  call void @col_set_str(ptr noundef %19, i32 noundef 25, ptr noundef @.str.1598)
  %20 = load ptr, ptr %5, align 8
  %21 = call i32 @tvb_reported_length(ptr noundef %20)
  store i32 %21, ptr %11, align 4
  %22 = load ptr, ptr %7, align 8
  %23 = load i32, ptr @proto_iphc_crtp, align 4
  %24 = load ptr, ptr %5, align 8
  %25 = call ptr @val_to_str_ext_const(i32 noundef 103, ptr noundef @ppp_vals_ext, ptr noundef @.str.692)
  %26 = call ptr (ptr, i32, ptr, i32, i32, ptr, ...) @proto_tree_add_protocol_format(ptr noundef %22, i32 noundef %23, ptr noundef %24, i32 noundef 0, i32 noundef -1, ptr noundef @.str.1322, ptr noundef %25)
  store ptr %26, ptr %10, align 8
  %27 = load ptr, ptr %10, align 8
  %28 = load i32, ptr @ett_iphc_crtp, align 4
  %29 = call ptr @proto_item_add_subtree(ptr noundef %27, i32 noundef %28)
  store ptr %29, ptr %9, align 8
  store i32 2, ptr %12, align 4
  %30 = load ptr, ptr %9, align 8
  %31 = load i32, ptr @hf_iphc_crtp_cid8, align 4
  %32 = load ptr, ptr %5, align 8
  %33 = call ptr @proto_tree_add_item(ptr noundef %30, i32 noundef %31, ptr noundef %32, i32 noundef 0, i32 noundef 1, i32 noundef 0)
  %34 = load ptr, ptr %9, align 8
  %35 = load i32, ptr @hf_iphc_crtp_seq, align 4
  %36 = load ptr, ptr %5, align 8
  %37 = call ptr @proto_tree_add_item(ptr noundef %34, i32 noundef %35, ptr noundef %36, i32 noundef 1, i32 noundef 1, i32 noundef 0)
  %38 = load i32, ptr %12, align 4
  %39 = load i32, ptr %13, align 4
  %40 = add i32 %39, %38
  store i32 %40, ptr %13, align 4
  %41 = load i32, ptr %12, align 4
  %42 = load i32, ptr %11, align 4
  %43 = sub i32 %42, %41
  store i32 %43, ptr %11, align 4
  %44 = load ptr, ptr %9, align 8
  %45 = load i32, ptr @hf_iphc_crtp_data, align 4
  %46 = load ptr, ptr %5, align 8
  %47 = load i32, ptr %13, align 4
  %48 = load i32, ptr %11, align 4
  %49 = call ptr @proto_tree_add_item(ptr noundef %44, i32 noundef %45, ptr noundef %46, i32 noundef %47, i32 noundef %48, i32 noundef 0)
  %50 = load ptr, ptr %5, align 8
  %51 = call i32 @tvb_captured_length(ptr noundef %50)
  call void @llvm.lifetime.end.p0(i64 4, ptr %13) #6
  call void @llvm.lifetime.end.p0(i64 4, ptr %12) #6
  call void @llvm.lifetime.end.p0(i64 4, ptr %11) #6
  call void @llvm.lifetime.end.p0(i64 8, ptr %10) #6
  call void @llvm.lifetime.end.p0(i64 8, ptr %9) #6
  ret i32 %51
}