; Function Attrs: null_pointer_is_valid sspstrong uwtable
define internal i32 @dissect_iphc_crtp_cudp8(ptr noundef %0, ptr noundef readonly captures(none) %1, ptr noundef %2, ptr readnone captures(none) %3) #1 {
  %5 = getelementptr inbounds nuw i8, ptr %1, i64 8
  %6 = load ptr, ptr %5, align 8
  tail call void @col_set_str(ptr noundef %6, i32 noundef 35, ptr noundef nonnull @.str.855)
  %7 = load ptr, ptr %5, align 8
  tail call void @col_set_str(ptr noundef %7, i32 noundef 25, ptr noundef nonnull @.str.1598)
  %8 = tail call i32 @tvb_reported_length(ptr noundef %0)
  %9 = load i32, ptr @proto_iphc_crtp, align 4
  %10 = tail call ptr @val_to_str_ext_const(i32 noundef 103, ptr noundef nonnull @ppp_vals_ext, ptr noundef nonnull @.str.692)
  %11 = tail call ptr (ptr, i32, ptr, i32, i32, ptr, ...) @proto_tree_add_protocol_format(ptr noundef %2, i32 noundef %9, ptr noundef %0, i32 noundef 0, i32 noundef -1, ptr noundef nonnull @.str.1322, ptr noundef %10)
  %12 = load i32, ptr @ett_iphc_crtp, align 4
  %13 = tail call ptr @proto_item_add_subtree(ptr noundef %11, i32 noundef %12)
  %14 = load i32, ptr @hf_iphc_crtp_cid8, align 4
  %15 = tail call ptr @proto_tree_add_item(ptr noundef %13, i32 noundef %14, ptr noundef %0, i32 noundef 0, i32 noundef 1, i32 noundef 0)
  %16 = load i32, ptr @hf_iphc_crtp_seq, align 4
  %17 = tail call ptr @proto_tree_add_item(ptr noundef %13, i32 noundef %16, ptr noundef %0, i32 noundef 1, i32 noundef 1, i32 noundef 0)
  %18 = add i32 %8, -2
  %19 = load i32, ptr @hf_iphc_crtp_data, align 4
  %20 = tail call ptr @proto_tree_add_item(ptr noundef %13, i32 noundef %19, ptr noundef %0, i32 noundef 2, i32 noundef %18, i32 noundef 0)
  %21 = tail call i32 @tvb_captured_length(ptr noundef %0)
  ret i32 %21
}